target datalayout = "e-m:e-p270:32:32-p271:32:32-p272:64:64-i64:64-i128:128-f80:128-n8:16:32:64-S128"
target triple = "x86_64-pc-linux-gnu"

@hf_srvr_param_string = internal global i32 0, align 4
@hf_srvr_param_number = internal global i32 0, align 4
@hf_srvr_param_boolean = internal global i32 0, align 4

; Function Attrs: null_pointer_is_valid sspstrong uwtable
define internal void @dissect_ncp_123_62_reply(ptr noundef %0, ptr noundef %1) #0 {
  %3 = alloca ptr, align 8
  %4 = alloca ptr, align 8
  %5 = alloca i8, align 1
  %6 = alloca ptr, align 8
  %7 = alloca i32, align 4
  store ptr %0, ptr %3, align 8
  store volatile ptr %1, ptr %4, align 8
  call void @llvm.lifetime.start.p0(i64 1, ptr %5) #13
  call void @llvm.lifetime.start.p0(i64 8, ptr %6) #13
  call void @llvm.lifetime.start.p0(i64 4, ptr %7) #13
  %8 = load ptr, ptr %3, align 8
  %9 = call zeroext i8 @tvb_get_uint8(ptr noundef %8, i32 noundef 24)
  store i8 %9, ptr %5, align 1
  %10 = call ptr @wmem_packet_scope()
  %11 = load ptr, ptr %3, align 8
  %12 = call ptr @tvb_get_stringz_enc(ptr noundef %10, ptr noundef %11, i32 noundef 32, ptr noundef %7, i32 noundef 0)
  store ptr %12, ptr %6, align 8
  %13 = load i8, ptr %5, align 1
  %14 = zext i8 %13 to i32
  switch i32 %14, label %42 [
    i32 0, label %15
    i32 2, label %15
    i32 4, label %15
    i32 6, label %15
    i32 7, label %15
    i32 1, label %24
    i32 5, label %33
  ]

15:                                               ; preds = %2, %2, %2, %2, %2
  %16 = load volatile ptr, ptr %4, align 8
  %17 = load i32, ptr @hf_srvr_param_number, align 4
  %18 = load ptr, ptr %3, align 8
  %19 = load ptr, ptr %6, align 8
  %20 = call i64 @strlen(ptr noundef %19) #17
  %21 = trunc i64 %20 to i32
  %22 = add i32 37, %21
  %23 = call ptr @proto_tree_add_item(ptr noundef %16, i32 noundef %17, ptr noundef %18, i32 noundef %22, i32 noundef 4, i32 noundef -2147483648)
  br label %43

24:                                               ; preds = %2
  %25 = load volatile ptr, ptr %4, align 8
  %26 = load i32, ptr @hf_srvr_param_boolean, align 4
  %27 = load ptr, ptr %3, align 8
  %28 = load ptr, ptr %6, align 8
  %29 = call i64 @strlen(ptr noundef %28) #17
  %30 = trunc i64 %29 to i32
  %31 = add i32 37, %30
  %32 = call ptr @proto_tree_add_item(ptr noundef %25, i32 noundef %26, ptr noundef %27, i32 noundef %31, i32 noundef 1, i32 noundef -2147483648)
  br label %43

33:                                               ; preds = %2
  %34 = load volatile ptr, ptr %4, align 8
  %35 = load i32, ptr @hf_srvr_param_string, align 4
  %36 = load ptr, ptr %3, align 8
  %37 = load ptr, ptr %6, align 8
  %38 = call i64 @strlen(ptr noundef %37) #17
  %39 = trunc i64 %38 to i32
  %40 = add i32 37, %39
  %41 = call ptr @proto_tree_add_item(ptr noundef %34, i32 noundef %35, ptr noundef %36, i32 noundef %40, i32 noundef -1, i32 noundef 0)
  br label %43

42:                                               ; preds = %2
  br label %43

43:                                               ; preds = %42, %33, %24, %15
  call void @llvm.lifetime.end.p0(i64 4, ptr %7) #13
  call void @llvm.lifetime.end.p0(i64 8, ptr %6) #13
  call void @llvm.lifetime.end.p0(i64 1, ptr %5) #13
  ret void
}