; Function Attrs: null_pointer_is_valid sspstrong uwtable
define internal fastcc void @dissect_ncp_123_62_reply(ptr noundef %0, ptr noundef nonnull %1) unnamed_addr #0 {
  %3 = alloca ptr, align 8
  %4 = alloca i32, align 4
  store volatile ptr %1, ptr %3, align 8
  call void @llvm.lifetime.start.p0(i64 4, ptr nonnull %4) #14
  %5 = tail call zeroext i8 @tvb_get_uint8(ptr noundef %0, i32 noundef 24)
  %6 = tail call ptr @wmem_packet_scope()
  %7 = call ptr @tvb_get_stringz_enc(ptr noundef %6, ptr noundef %0, i32 noundef 32, ptr noundef nonnull %4, i32 noundef 0)
  switch i8 %5, label %26 [
    i8 0, label %8
    i8 2, label %8
    i8 4, label %8
    i8 6, label %8
    i8 7, label %8
    i8 1, label %14
    i8 5, label %20
  ]

8:                                                ; preds = %2, %2, %2, %2, %2
  %.0..0..0..0.3 = load volatile ptr, ptr %3, align 8
  %9 = load i32, ptr @hf_srvr_param_number, align 4
  %10 = call i64 @strlen(ptr noundef %7) #18
  %11 = trunc i64 %10 to i32
  %12 = add i32 %11, 37
  %13 = call ptr @proto_tree_add_item(ptr noundef %.0..0..0..0.3, i32 noundef %9, ptr noundef %0, i32 noundef %12, i32 noundef 4, i32 noundef -2147483648)
  br label %26

14:                                               ; preds = %2
  %.0..0..0..0.4 = load volatile ptr, ptr %3, align 8
  %15 = load i32, ptr @hf_srvr_param_boolean, align 4
  %16 = call i64 @strlen(ptr noundef %7) #18
  %17 = trunc i64 %16 to i32
  %18 = add i32 %17, 37
  %19 = call ptr @proto_tree_add_item(ptr noundef %.0..0..0..0.4, i32 noundef %15, ptr noundef %0, i32 noundef %18, i32 noundef 1, i32 noundef -2147483648)
  br label %26

20:                                               ; preds = %2
  %.0..0..0..0.5 = load volatile ptr, ptr %3, align 8
  %21 = load i32, ptr @hf_srvr_param_string, align 4
  %22 = call i64 @strlen(ptr noundef %7) #18
  %23 = trunc i64 %22 to i32
  %24 = add i32 %23, 37
  %25 = call ptr @proto_tree_add_item(ptr noundef %.0..0..0..0.5, i32 noundef %21, ptr noundef %0, i32 noundef %24, i32 noundef -1, i32 noundef 0)
  br label %26

26:                                               ; preds = %2, %20, %14, %8
  call void @llvm.lifetime.end.p0(i64 4, ptr nonnull %4) #14
  ret void
}